; Function Attrs: nounwind uwtable
define ptr @l_Lake_GitRepo_checkoutDetach(ptr noundef %0, ptr noundef %1, ptr noundef %2, ptr noundef %3) local_unnamed_addr #0 {
  %5 = load ptr, ptr @l_Lake_GitRepo_checkoutDetach___closed__2, align 8, !tbaa !12
  tail call void @lean_inc_heartbeat() #3
  %6 = tail call noalias ptr @mi_malloc_small(i64 noundef 24) #3
  %7 = icmp eq ptr %6, null
  br i1 %7, label %8, label %lean_alloc_ctor.exit

8:                                                ; preds = %4
  tail call void @lean_internal_panic_out_of_memory() #4
  unreachable

lean_alloc_ctor.exit:                             ; preds = %4
  %9 = getelementptr inbounds nuw i8, ptr %6, i64 4
  store i32 1, ptr %6, align 4, !tbaa !8
  store i32 16908312, ptr %9, align 4
  %10 = getelementptr inbounds nuw i8, ptr %6, i64 8
  store ptr %0, ptr %10, align 8, !tbaa !12
  %11 = getelementptr inbounds nuw i8, ptr %6, i64 16
  store ptr %5, ptr %11, align 8, !tbaa !12
  %12 = load ptr, ptr @l_Lake_GitRepo_checkoutDetach___closed__3, align 8, !tbaa !12
  tail call void @lean_inc_heartbeat() #3
  %13 = tail call noalias ptr @mi_malloc_small(i64 noundef 24) #3
  %14 = icmp eq ptr %13, null
  br i1 %14, label %15, label %lean_alloc_ctor.exit33

15:                                               ; preds = %lean_alloc_ctor.exit
  tail call void @lean_internal_panic_out_of_memory() #4
  unreachable

lean_alloc_ctor.exit33:                           ; preds = %lean_alloc_ctor.exit
  %16 = getelementptr inbounds nuw i8, ptr %13, i64 4
  store i32 1, ptr %13, align 4, !tbaa !8
  store i32 16908312, ptr %16, align 4
  %17 = getelementptr inbounds nuw i8, ptr %13, i64 8
  store ptr %12, ptr %17, align 8, !tbaa !12
  %18 = getelementptr inbounds nuw i8, ptr %13, i64 16
  store ptr %6, ptr %18, align 8, !tbaa !12
  %19 = load ptr, ptr @l_Lake_GitRepo_checkoutBranch___closed__2, align 8, !tbaa !12
  tail call void @lean_inc_heartbeat() #3
  %20 = tail call noalias ptr @mi_malloc_small(i64 noundef 24) #3
  %21 = icmp eq ptr %20, null
  br i1 %21, label %22, label %lean_alloc_ctor.exit34

22:                                               ; preds = %lean_alloc_ctor.exit33
  tail call void @lean_internal_panic_out_of_memory() #4
  unreachable

lean_alloc_ctor.exit34:                           ; preds = %lean_alloc_ctor.exit33
  %23 = getelementptr inbounds nuw i8, ptr %20, i64 4
  store i32 1, ptr %20, align 4, !tbaa !8
  store i32 16908312, ptr %23, align 4
  %24 = getelementptr inbounds nuw i8, ptr %20, i64 8
  store ptr %19, ptr %24, align 8, !tbaa !12
  %25 = getelementptr inbounds nuw i8, ptr %20, i64 16
  store ptr %13, ptr %25, align 8, !tbaa !12
  %26 = tail call ptr @lean_array_mk(ptr noundef nonnull %20) #3
  tail call void @lean_inc_heartbeat() #3
  %27 = tail call noalias ptr @mi_malloc_small(i64 noundef 16) #3
  %28 = icmp eq ptr %27, null
  br i1 %28, label %29, label %lean_alloc_ctor.exit35

29:                                               ; preds = %lean_alloc_ctor.exit34
  tail call void @lean_internal_panic_out_of_memory() #4
  unreachable

lean_alloc_ctor.exit35:                           ; preds = %lean_alloc_ctor.exit34
  %30 = getelementptr inbounds nuw i8, ptr %27, i64 4
  store i32 1, ptr %27, align 4, !tbaa !8
  store i32 16842768, ptr %30, align 4
  %31 = getelementptr inbounds nuw i8, ptr %27, i64 8
  store ptr %1, ptr %31, align 8, !tbaa !12
  %32 = load ptr, ptr @l_Lake_GitRepo_captureGit_x3f___closed__1, align 8, !tbaa !12
  %33 = load ptr, ptr @l_Lake_Git_filterUrl_x3f___closed__1, align 8, !tbaa !12
  %34 = load ptr, ptr @l_Lake_GitRepo_captureGit_x3f___closed__2, align 8, !tbaa !12
  tail call void @lean_inc_heartbeat() #3
  %35 = tail call noalias ptr @mi_malloc_small(i64 noundef 56) #3
  %36 = icmp eq ptr %35, null
  br i1 %36, label %37, label %lean_alloc_ctor.exit36

37:                                               ; preds = %lean_alloc_ctor.exit35
  tail call void @lean_internal_panic_out_of_memory() #4
  unreachable

lean_alloc_ctor.exit36:                           ; preds = %lean_alloc_ctor.exit35
  %38 = getelementptr inbounds nuw i8, ptr %35, i64 4
  %39 = getelementptr inbounds nuw i8, ptr %35, i64 48
  store i64 1, ptr %39, align 8, !tbaa !4
  store i32 1, ptr %35, align 4, !tbaa !8
  store i32 327736, ptr %38, align 4
  %40 = getelementptr inbounds nuw i8, ptr %35, i64 8
  store ptr %32, ptr %40, align 8, !tbaa !12
  %41 = getelementptr inbounds nuw i8, ptr %35, i64 16
  store ptr %33, ptr %41, align 8, !tbaa !12
  %42 = getelementptr inbounds nuw i8, ptr %35, i64 24
  store ptr %26, ptr %42, align 8, !tbaa !12
  %43 = getelementptr inbounds nuw i8, ptr %35, i64 32
  store ptr %27, ptr %43, align 8, !tbaa !12
  %44 = getelementptr inbounds nuw i8, ptr %35, i64 40
  store ptr %34, ptr %44, align 8, !tbaa !12
  %45 = tail call ptr @l_Lake_proc(ptr noundef nonnull %35, i8 noundef zeroext 1, ptr noundef %2, ptr noundef %3) #3
  ret ptr %45
}